; Function Attrs: mustprogress nofree norecurse nosync nounwind willreturn memory(argmem: readwrite) uwtable
define noundef i32 @_ZN6LibRaw14adjust_maximumEv(ptr noundef nonnull align 8 captures(none) dereferenceable(767680) %0) local_unnamed_addr #15 align 2 {
  %2 = getelementptr inbounds nuw i8, ptr %0, i64 5396
  %3 = load float, ptr %2, align 4, !tbaa !117
  %4 = fpext reassoc nsz arcp contract afn float %3 to double
  %5 = fcmp reassoc nsz arcp contract afn olt double %4, 1.000000e-05
  br i1 %5, label %21, label %6

6:                                                ; preds = %1
  %7 = fcmp reassoc nsz arcp contract afn ogt double %4, 9.999900e-01
  %. = select nsz i1 %7, float 7.500000e-01, float %3
  %8 = getelementptr inbounds nuw i8, ptr %0, i64 152996
  %9 = load i32, ptr %8, align 4, !tbaa !118
  %10 = and i32 %9, 65535
  %.not = icmp eq i32 %10, 0
  br i1 %.not, label %21, label %11

11:                                               ; preds = %6
  %12 = getelementptr inbounds nuw i8, ptr %0, i64 153000
  %13 = load i32, ptr %12, align 8, !tbaa !119
  %14 = icmp ult i32 %10, %13
  br i1 %14, label %15, label %21

15:                                               ; preds = %11
  %16 = uitofp nneg i32 %10 to float
  %17 = uitofp i32 %13 to float
  %18 = fmul reassoc nsz arcp contract afn float %., %17
  %19 = fcmp reassoc nsz arcp contract afn olt float %18, %16
  br i1 %19, label %20, label %21

20:                                               ; preds = %15
  store i32 %10, ptr %12, align 8, !tbaa !119
  br label %21

21:                                               ; preds = %6, %11, %15, %20, %1
  ret i32 0
}